; Function Attrs: mustprogress uwtable
define noundef i32 @_ZNK6icu_7717RuleBasedTimeZone12getRawOffsetEv(ptr noundef nonnull align 8 dereferenceable(105) %0) unnamed_addr #1 align 2 {
  %2 = alloca i32, align 4
  %3 = alloca i32, align 4
  %4 = alloca i32, align 4
  call void @llvm.lifetime.start.p0(i64 4, ptr nonnull %2) #14
  store i32 0, ptr %2, align 4, !tbaa !21
  call void @llvm.lifetime.start.p0(i64 4, ptr nonnull %3) #14
  call void @llvm.lifetime.start.p0(i64 4, ptr nonnull %4) #14
  %5 = tail call double @uprv_getUTCtime_77()
  %6 = load ptr, ptr %0, align 8, !tbaa !3
  %7 = getelementptr inbounds nuw i8, ptr %6, i64 48
  %8 = load ptr, ptr %7, align 8
  call void %8(ptr noundef nonnull align 8 dereferenceable(105) %0, double noundef %5, i8 noundef signext 0, ptr noundef nonnull align 4 dereferenceable(4) %3, ptr noundef nonnull align 4 dereferenceable(4) %4, ptr noundef nonnull align 4 dereferenceable(4) %2)
  %9 = load i32, ptr %3, align 4, !tbaa !48
  call void @llvm.lifetime.end.p0(i64 4, ptr nonnull %4) #14
  call void @llvm.lifetime.end.p0(i64 4, ptr nonnull %3) #14
  call void @llvm.lifetime.end.p0(i64 4, ptr nonnull %2) #14
  ret i32 %9
}